; Function Attrs: null_pointer_is_valid sspstrong uwtable
define void @bp_bundle_free(ptr noundef %0, ptr noundef %1) local_unnamed_addr #2 {
  %3 = getelementptr inbounds nuw i8, ptr %1, i64 24
  %4 = load ptr, ptr %3, align 8
  tail call void @wmem_free(ptr noundef %0, ptr noundef %4)
  %5 = getelementptr inbounds nuw i8, ptr %1, i64 32
  %6 = load ptr, ptr %5, align 8
  tail call void @bp_block_primary_free(ptr noundef %0, ptr noundef %6)
  %7 = getelementptr inbounds nuw i8, ptr %1, i64 40
  %8 = load ptr, ptr %7, align 8
  tail call void @wmem_destroy_list(ptr noundef %8)
  tail call void @wmem_free(ptr noundef %0, ptr noundef %1)
  ret void
}